; Function Attrs: nounwind uwtable
define internal void @_StartLOs(ptr noundef readonly captures(none) %0, ptr noundef readonly captures(none) %1) #0 {
  %3 = alloca %struct.pg_compress_specification, align 8
  %4 = alloca [1024 x i8], align 16
  %5 = getelementptr inbounds nuw i8, ptr %0, i64 592
  %6 = load ptr, ptr %5, align 8
  %7 = getelementptr inbounds nuw i8, ptr %1, i64 152
  %8 = load ptr, ptr %7, align 8
  call void @llvm.lifetime.start.p0(i64 32, ptr nonnull %3) #14
  call void @llvm.memset.p0.i64(ptr noundef nonnull align 8 dereferenceable(32) %3, i8 0, i64 32, i1 false)
  call void @llvm.lifetime.start.p0(i64 1024, ptr nonnull %4) #14
  %9 = load ptr, ptr %8, align 8
  %.val.val = load ptr, ptr %6, align 8
  call fastcc void @setFilePath(ptr %.val.val, ptr noundef %4, ptr noundef %9)
  store i32 0, ptr %3, align 8
  %10 = call ptr @InitCompressFileHandle(ptr noundef nonnull byval(%struct.pg_compress_specification) align 8 %3) #14
  %11 = getelementptr inbounds nuw i8, ptr %6, i64 16
  store ptr %10, ptr %11, align 8
  %12 = getelementptr inbounds nuw i8, ptr %10, i64 8
  %13 = load ptr, ptr %12, align 8
  %14 = call zeroext i1 %13(ptr noundef nonnull %4, ptr noundef nonnull @.str.27, ptr noundef %10) #14
  br i1 %14, label %16, label %15

15:                                               ; preds = %2
  call void (i32, i32, ptr, ...) @pg_log_generic(i32 noundef 4, i32 noundef 0, ptr noundef nonnull @.str.16, ptr noundef nonnull %4) #14
  call void @exit_nicely(i32 noundef 1) #15
  unreachable

16:                                               ; preds = %2
  call void @llvm.lifetime.end.p0(i64 1024, ptr nonnull %4) #14
  call void @llvm.lifetime.end.p0(i64 32, ptr nonnull %3) #14
  ret void
}